; Function Attrs: mustprogress uwtable
define dso_local noundef zeroext i1 @_ZN4Json12StyledWriter18hasCommentForValueERKNS_5ValueE(ptr noundef nonnull align 8 dereferenceable(40) %0) local_unnamed_addr #0 align 2 {
  %2 = tail call noundef zeroext i1 @_ZNK4Json5Value10hasCommentENS_16CommentPlacementE(ptr noundef nonnull align 8 dereferenceable(40) %0, i32 noundef 0)
  br i1 %2, label %7, label %3

3:                                                ; preds = %1
  %4 = tail call noundef zeroext i1 @_ZNK4Json5Value10hasCommentENS_16CommentPlacementE(ptr noundef nonnull align 8 dereferenceable(40) %0, i32 noundef 1)
  br i1 %4, label %7, label %5

5:                                                ; preds = %3
  %6 = tail call noundef zeroext i1 @_ZNK4Json5Value10hasCommentENS_16CommentPlacementE(ptr noundef nonnull align 8 dereferenceable(40) %0, i32 noundef 2)
  br label %7

7:                                                ; preds = %5, %3, %1
  %8 = phi i1 [ true, %3 ], [ true, %1 ], [ %6, %5 ]
  ret i1 %8
}